target datalayout = "e-m:e-p270:32:32-p271:32:32-p272:64:64-i64:64-i128:128-f80:128-n8:16:32:64-S128"
target triple = "x86_64-pc-linux-gnu"

%struct.SDL_Camera = type { ptr, ptr, i32, %struct.SDL_AtomicInt, ptr, ptr, ptr, ptr, i32, %struct.SDL_CameraSpec, %struct.SDL_CameraSpec, i32, ptr, i32, i64, i64, ptr, ptr, [8 x %struct.SurfaceList], %struct.SurfaceList, %struct.SurfaceList, %struct.SurfaceList, ptr, i32, i8, %struct.SDL_AtomicInt, %struct.SDL_AtomicInt, ptr, i32, i32, ptr }
%struct.SDL_CameraSpec = type { i32, i32, i32, i32, i32, i32 }
%struct.SurfaceList = type { ptr, i64, ptr }
%struct.SDL_AtomicInt = type { i32 }
%struct.SDL_PrivateCameraData = type { i32, i32, i32, ptr, i32 }
%struct.fd_set = type { [16 x i64] }
%struct.timeval = type { i64, i64 }

; Function Attrs: nounwind uwtable
define internal zeroext i1 @V4L2_WaitDevice(ptr noundef %0) #0 {
  %2 = alloca i1, align 1
  %3 = alloca ptr, align 8
  %4 = alloca i32, align 4
  %5 = alloca i32, align 4
  %6 = alloca %struct.fd_set, align 8
  %7 = alloca i32, align 4
  %8 = alloca ptr, align 8
  %9 = alloca %struct.timeval, align 8
  %10 = alloca i32, align 4
  store ptr %0, ptr %3, align 8
  call void @llvm.lifetime.start.p0(i64 4, ptr %4) #8
  %11 = load ptr, ptr %3, align 8
  %12 = getelementptr inbounds nuw %struct.SDL_Camera, ptr %11, i32 0, i32 30
  %13 = load ptr, ptr %12, align 8
  %14 = getelementptr inbounds nuw %struct.SDL_PrivateCameraData, ptr %13, i32 0, i32 0
  %15 = load i32, ptr %14, align 8
  store i32 %15, ptr %4, align 4
  call void @llvm.lifetime.start.p0(i64 4, ptr %5) #8
  br label %16

16:                                               ; preds = %72, %1
  call void @llvm.lifetime.start.p0(i64 128, ptr %6) #8
  br label %17

17:                                               ; preds = %16
  call void @llvm.lifetime.start.p0(i64 4, ptr %7) #8
  call void @llvm.lifetime.start.p0(i64 8, ptr %8) #8
  store ptr %6, ptr %8, align 8
  store i32 0, ptr %7, align 4
  br label %18

18:                                               ; preds = %28, %17
  %19 = load i32, ptr %7, align 4
  %20 = zext i32 %19 to i64
  %21 = icmp ult i64 %20, 16
  br i1 %21, label %22, label %31

22:                                               ; preds = %18
  %23 = load ptr, ptr %8, align 8
  %24 = getelementptr inbounds nuw %struct.fd_set, ptr %23, i32 0, i32 0
  %25 = load i32, ptr %7, align 4
  %26 = zext i32 %25 to i64
  %27 = getelementptr inbounds nuw [16 x i64], ptr %24, i64 0, i64 %26
  store i64 0, ptr %27, align 8
  br label %28

28:                                               ; preds = %22
  %29 = load i32, ptr %7, align 4
  %30 = add i32 %29, 1
  store i32 %30, ptr %7, align 4
  br label %18, !llvm.loop !9

31:                                               ; preds = %18
  call void @llvm.lifetime.end.p0(i64 8, ptr %8) #8
  call void @llvm.lifetime.end.p0(i64 4, ptr %7) #8
  br label %32

32:                                               ; preds = %31
  br label %33

33:                                               ; preds = %32
  %34 = load i32, ptr %4, align 4
  %35 = srem i32 %34, 64
  %36 = zext i32 %35 to i64
  %37 = shl i64 1, %36
  %38 = getelementptr inbounds nuw %struct.fd_set, ptr %6, i32 0, i32 0
  %39 = load i32, ptr %4, align 4
  %40 = sdiv i32 %39, 64
  %41 = sext i32 %40 to i64
  %42 = getelementptr inbounds [16 x i64], ptr %38, i64 0, i64 %41
  %43 = load i64, ptr %42, align 8
  %44 = or i64 %43, %37
  store i64 %44, ptr %42, align 8
  call void @llvm.lifetime.start.p0(i64 16, ptr %9) #8
  %45 = getelementptr inbounds nuw %struct.timeval, ptr %9, i32 0, i32 0
  store i64 0, ptr %45, align 8
  %46 = getelementptr inbounds nuw %struct.timeval, ptr %9, i32 0, i32 1
  store i64 100000, ptr %46, align 8
  %47 = load i32, ptr %4, align 4
  %48 = add nsw i32 %47, 1
  %49 = call i32 @select(i32 noundef %48, ptr noundef %6, ptr noundef null, ptr noundef null, ptr noundef %9)
  store i32 %49, ptr %5, align 4
  %50 = load i32, ptr %5, align 4
  %51 = icmp eq i32 %50, -1
  br i1 %51, label %52, label %57

52:                                               ; preds = %33
  %53 = call ptr @__errno_location() #9
  %54 = load i32, ptr %53, align 4
  %55 = icmp eq i32 %54, 4
  br i1 %55, label %56, label %57

56:                                               ; preds = %52
  store i32 0, ptr %5, align 4
  br label %62

57:                                               ; preds = %52, %33
  %58 = load i32, ptr %5, align 4
  %59 = icmp sgt i32 %58, 0
  br i1 %59, label %60, label %61

60:                                               ; preds = %57
  store i1 true, ptr %2, align 1
  store i32 1, ptr %10, align 4
  br label %69

61:                                               ; preds = %57
  br label %62

62:                                               ; preds = %61, %56
  %63 = load ptr, ptr %3, align 8
  %64 = getelementptr inbounds nuw %struct.SDL_Camera, ptr %63, i32 0, i32 25
  %65 = call i32 @SDL_GetAtomicInt_REAL(ptr noundef %64)
  %66 = icmp ne i32 %65, 0
  br i1 %66, label %67, label %68

67:                                               ; preds = %62
  store i1 true, ptr %2, align 1
  store i32 1, ptr %10, align 4
  br label %69

68:                                               ; preds = %62
  store i32 0, ptr %10, align 4
  br label %69

69:                                               ; preds = %68, %67, %60
  call void @llvm.lifetime.end.p0(i64 16, ptr %9) #8
  call void @llvm.lifetime.end.p0(i64 128, ptr %6) #8
  %70 = load i32, ptr %10, align 4
  switch i32 %70, label %76 [
    i32 0, label %71
  ]

71:                                               ; preds = %69
  br label %72

72:                                               ; preds = %71
  %73 = load i32, ptr %5, align 4
  %74 = icmp eq i32 %73, 0
  br i1 %74, label %16, label %75, !llvm.loop !10

75:                                               ; preds = %72
  store i1 false, ptr %2, align 1
  store i32 1, ptr %10, align 4
  br label %76

76:                                               ; preds = %75, %69
  call void @llvm.lifetime.end.p0(i64 4, ptr %5) #8
  call void @llvm.lifetime.end.p0(i64 4, ptr %4) #8
  %77 = load i1, ptr %2, align 1
  ret i1 %77
}