; Function Attrs: nounwind uwtable
define internal zeroext i1 @V4L2_WaitDevice(ptr noundef %0) #1 {
  %2 = alloca %struct.fd_set, align 8
  %3 = alloca %struct.timeval, align 8
  %4 = getelementptr inbounds nuw i8, ptr %0, i64 464
  %5 = load ptr, ptr %4, align 8
  %6 = load i32, ptr %5, align 8
  %7 = srem i32 %6, 64
  %8 = zext nneg i32 %7 to i64
  %9 = shl nuw i64 1, %8
  %10 = sdiv i32 %6, 64
  %11 = sext i32 %10 to i64
  %12 = getelementptr inbounds [16 x i64], ptr %2, i64 0, i64 %11
  %13 = getelementptr inbounds nuw i8, ptr %3, i64 8
  %14 = add nsw i32 %6, 1
  %15 = getelementptr inbounds nuw i8, ptr %0, i64 440
  br label %16

16:                                               ; preds = %.thread, %1
  call void @llvm.lifetime.start.p0(i64 128, ptr nonnull %2) #11
  call void @llvm.memset.p0.i64(ptr noundef nonnull align 8 dereferenceable(128) %2, i8 0, i64 128, i1 false)
  %17 = load i64, ptr %12, align 8
  %18 = or i64 %17, %9
  store i64 %18, ptr %12, align 8
  call void @llvm.lifetime.start.p0(i64 16, ptr nonnull %3) #11
  store i64 0, ptr %3, align 8
  store i64 100000, ptr %13, align 8
  %19 = call i32 @select(i32 noundef %14, ptr noundef nonnull %2, ptr noundef null, ptr noundef null, ptr noundef nonnull %3) #11
  %20 = icmp eq i32 %19, -1
  br i1 %20, label %21, label %25

21:                                               ; preds = %16
  %22 = tail call ptr @__errno_location() #12
  %23 = load i32, ptr %22, align 4
  %24 = icmp ne i32 %23, 4
  %spec.select = sext i1 %24 to i32
  br label %.thread

25:                                               ; preds = %16
  %26 = icmp sgt i32 %19, 0
  br i1 %26, label %.thread20, label %.thread

.thread20:                                        ; preds = %25
  call void @llvm.lifetime.end.p0(i64 16, ptr nonnull %3) #11
  call void @llvm.lifetime.end.p0(i64 128, ptr nonnull %2) #11
  br label %29

.thread:                                          ; preds = %21, %25
  %.015 = phi i32 [ %19, %25 ], [ %spec.select, %21 ]
  %27 = call i32 @SDL_GetAtomicInt_REAL(ptr noundef nonnull %15) #11
  call void @llvm.lifetime.end.p0(i64 16, ptr nonnull %3) #11
  call void @llvm.lifetime.end.p0(i64 128, ptr nonnull %2) #11
  %28 = or i32 %27, %.015
  %or.cond = icmp eq i32 %28, 0
  br i1 %or.cond, label %16, label %.loopexit, !llvm.loop !8

.loopexit:                                        ; preds = %.thread
  %.not.le = icmp ne i32 %27, 0
  br label %29

29:                                               ; preds = %.loopexit, %.thread20
  %cond24 = phi i1 [ true, %.thread20 ], [ %.not.le, %.loopexit ]
  ret i1 %cond24
}